; Function Attrs: mustprogress uwtable
define ptr @ucol_getAvailable_75(i32 noundef %index) local_unnamed_addr #1 {
entry:
  %count = alloca i32, align 4
  store i32 0, ptr %count, align 4
  %call = call noundef ptr @_ZN6icu_758Collator19getAvailableLocalesERi(ptr noundef nonnull align 4 dereferenceable(4) %count)
  %cmp.not = icmp ne ptr %call, null
  %0 = load i32, ptr %count, align 4
  %cmp1 = icmp sgt i32 %0, %index
  %or.cond = select i1 %cmp.not, i1 %cmp1, i1 false
  br i1 %or.cond, label %if.then, label %return

if.then:                                          ; preds = %entry
  %idxprom = sext i32 %index to i64
  %fullName.i = getelementptr inbounds %"class.icu_75::Locale", ptr %call, i64 %idxprom, i32 7
  %1 = load ptr, ptr %fullName.i, align 8
  br label %return

return:                                           ; preds = %entry, %if.then
  %retval.0 = phi ptr [ %1, %if.then ], [ null, %entry ]
  ret ptr %retval.0
}